; ModuleID = '46/1811.c'
source_filename = "46/1811.c"
target datalayout = "e-m:e-p270:32:32-p271:32:32-p272:64:64-i64:64-f80:128-n8:16:32:64-S128"
target triple = "x86_64-pc-linux-gnu"

@.str = private unnamed_addr constant [5 x i8] c"%d%d\00", align 1
@.str.1 = private unnamed_addr constant [3 x i8] c"%d\00", align 1
@.str.2 = private unnamed_addr constant [4 x i8] c"%d\0A\00", align 1

; Function Attrs: noinline nounwind uwtable
define dso_local i32 @main(i32 %0, i8** %1) #0 {
  %3 = alloca i32, align 4
  %4 = alloca i32, align 4
  %5 = alloca i8**, align 8
  %6 = alloca i32, align 4
  %7 = alloca i32, align 4
  %8 = alloca i32, align 4
  %9 = alloca i32, align 4
  %10 = alloca i32, align 4
  %11 = alloca i32, align 4
  %12 = alloca [100 x [100 x i32]], align 16
  store i32 0, i32* %3, align 4
  store i32 %0, i32* %4, align 4
  store i8** %1, i8*** %5, align 8
  %13 = call i32 (i8*, ...) @__isoc99_scanf(i8* getelementptr inbounds ([5 x i8], [5 x i8]* @.str, i64 0, i64 0), i32* %6, i32* %7)
  store i32 0, i32* %8, align 4
  br label %14

14:                                               ; preds = %35, %2
  %15 = load i32, i32* %8, align 4
  %16 = load i32, i32* %6, align 4
  %17 = icmp slt i32 %15, %16
  br i1 %17, label %18, label %38

18:                                               ; preds = %14
  store i32 0, i32* %9, align 4
  br label %19

19:                                               ; preds = %31, %18
  %20 = load i32, i32* %9, align 4
  %21 = load i32, i32* %7, align 4
  %22 = icmp slt i32 %20, %21
  br i1 %22, label %23, label %34

23:                                               ; preds = %19
  %24 = load i32, i32* %8, align 4
  %25 = sext i32 %24 to i64
  %26 = getelementptr inbounds [100 x [100 x i32]], [100 x [100 x i32]]* %12, i64 0, i64 %25
  %27 = load i32, i32* %9, align 4
  %28 = sext i32 %27 to i64
  %29 = getelementptr inbounds [100 x i32], [100 x i32]* %26, i64 0, i64 %28
  %30 = call i32 (i8*, ...) @__isoc99_scanf(i8* getelementptr inbounds ([3 x i8], [3 x i8]* @.str.1, i64 0, i64 0), i32* %29)
  br label %31

31:                                               ; preds = %23
  %32 = load i32, i32* %9, align 4
  %33 = add nsw i32 %32, 1
  store i32 %33, i32* %9, align 4
  br label %19

34:                                               ; preds = %19
  br label %35

35:                                               ; preds = %34
  %36 = load i32, i32* %8, align 4
  %37 = add nsw i32 %36, 1
  store i32 %37, i32* %8, align 4
  br label %14

38:                                               ; preds = %14
  store i32 0, i32* %10, align 4
  store i32 0, i32* %9, align 4
  %39 = load i32, i32* %6, align 4
  %40 = load i32, i32* %7, align 4
  %41 = mul nsw i32 %39, %40
  store i32 %41, i32* %11, align 4
  br label %42

42:                                               ; preds = %38, %166
  %43 = load i32, i32* %9, align 4
  store i32 %43, i32* %8, align 4
  br label %44

44:                                               ; preds = %66, %42
  %45 = load i32, i32* %8, align 4
  %46 = load i32, i32* %7, align 4
  %47 = load i32, i32* %9, align 4
  %48 = sub nsw i32 %46, %47
  %49 = icmp slt i32 %45, %48
  br i1 %49, label %50, label %69

50:                                               ; preds = %44
  %51 = load i32, i32* %9, align 4
  %52 = sext i32 %51 to i64
  %53 = getelementptr inbounds [100 x [100 x i32]], [100 x [100 x i32]]* %12, i64 0, i64 %52
  %54 = load i32, i32* %8, align 4
  %55 = sext i32 %54 to i64
  %56 = getelementptr inbounds [100 x i32], [100 x i32]* %53, i64 0, i64 %55
  %57 = load i32, i32* %56, align 4
  %58 = call i32 (i8*, ...) @printf(i8* getelementptr inbounds ([4 x i8], [4 x i8]* @.str.2, i64 0, i64 0), i32 %57)
  %59 = load i32, i32* %10, align 4
  %60 = add nsw i32 %59, 1
  store i32 %60, i32* %10, align 4
  %61 = load i32, i32* %10, align 4
  %62 = load i32, i32* %11, align 4
  %63 = icmp eq i32 %61, %62
  br i1 %63, label %64, label %65

64:                                               ; preds = %50
  store i32 0, i32* %3, align 4
  br label %169

65:                                               ; preds = %50
  br label %66

66:                                               ; preds = %65
  %67 = load i32, i32* %8, align 4
  %68 = add nsw i32 %67, 1
  store i32 %68, i32* %8, align 4
  br label %44

69:                                               ; preds = %44
  %70 = load i32, i32* %9, align 4
  %71 = add nsw i32 %70, 1
  store i32 %71, i32* %8, align 4
  br label %72

72:                                               ; preds = %97, %69
  %73 = load i32, i32* %8, align 4
  %74 = load i32, i32* %6, align 4
  %75 = load i32, i32* %9, align 4
  %76 = sub nsw i32 %74, %75
  %77 = icmp slt i32 %73, %76
  br i1 %77, label %78, label %100

78:                                               ; preds = %72
  %79 = load i32, i32* %8, align 4
  %80 = sext i32 %79 to i64
  %81 = getelementptr inbounds [100 x [100 x i32]], [100 x [100 x i32]]* %12, i64 0, i64 %80
  %82 = load i32, i32* %7, align 4
  %83 = sub nsw i32 %82, 1
  %84 = load i32, i32* %9, align 4
  %85 = sub nsw i32 %83, %84
  %86 = sext i32 %85 to i64
  %87 = getelementptr inbounds [100 x i32], [100 x i32]* %81, i64 0, i64 %86
  %88 = load i32, i32* %87, align 4
  %89 = call i32 (i8*, ...) @printf(i8* getelementptr inbounds ([4 x i8], [4 x i8]* @.str.2, i64 0, i64 0), i32 %88)
  %90 = load i32, i32* %10, align 4
  %91 = add nsw i32 %90, 1
  store i32 %91, i32* %10, align 4
  %92 = load i32, i32* %10, align 4
  %93 = load i32, i32* %11, align 4
  %94 = icmp eq i32 %92, %93
  br i1 %94, label %95, label %96

95:                                               ; preds = %78
  store i32 0, i32* %3, align 4
  br label %169

96:                                               ; preds = %78
  br label %97

97:                                               ; preds = %96
  %98 = load i32, i32* %8, align 4
  %99 = add nsw i32 %98, 1
  store i32 %99, i32* %8, align 4
  br label %72

100:                                              ; preds = %72
  %101 = load i32, i32* %9, align 4
  %102 = add nsw i32 %101, 1
  store i32 %102, i32* %8, align 4
  br label %103

103:                                              ; preds = %131, %100
  %104 = load i32, i32* %8, align 4
  %105 = load i32, i32* %7, align 4
  %106 = load i32, i32* %9, align 4
  %107 = sub nsw i32 %105, %106
  %108 = icmp slt i32 %104, %107
  br i1 %108, label %109, label %134

109:                                              ; preds = %103
  %110 = load i32, i32* %6, align 4
  %111 = sub nsw i32 %110, 1
  %112 = load i32, i32* %9, align 4
  %113 = sub nsw i32 %111, %112
  %114 = sext i32 %113 to i64
  %115 = getelementptr inbounds [100 x [100 x i32]], [100 x [100 x i32]]* %12, i64 0, i64 %114
  %116 = load i32, i32* %7, align 4
  %117 = sub nsw i32 %116, 1
  %118 = load i32, i32* %8, align 4
  %119 = sub nsw i32 %117, %118
  %120 = sext i32 %119 to i64
  %121 = getelementptr inbounds [100 x i32], [100 x i32]* %115, i64 0, i64 %120
  %122 = load i32, i32* %121, align 4
  %123 = call i32 (i8*, ...) @printf(i8* getelementptr inbounds ([4 x i8], [4 x i8]* @.str.2, i64 0, i64 0), i32 %122)
  %124 = load i32, i32* %10, align 4
  %125 = add nsw i32 %124, 1
  store i32 %125, i32* %10, align 4
  %126 = load i32, i32* %10, align 4
  %127 = load i32, i32* %11, align 4
  %128 = icmp eq i32 %126, %127
  br i1 %128, label %129, label %130

129:                                              ; preds = %109
  store i32 0, i32* %3, align 4
  br label %169

130:                                              ; preds = %109
  br label %131

131:                                              ; preds = %130
  %132 = load i32, i32* %8, align 4
  %133 = add nsw i32 %132, 1
  store i32 %133, i32* %8, align 4
  br label %103

134:                                              ; preds = %103
  %135 = load i32, i32* %9, align 4
  %136 = add nsw i32 %135, 1
  store i32 %136, i32* %8, align 4
  br label %137

137:                                              ; preds = %163, %134
  %138 = load i32, i32* %8, align 4
  %139 = load i32, i32* %6, align 4
  %140 = load i32, i32* %9, align 4
  %141 = sub nsw i32 %139, %140
  %142 = sub nsw i32 %141, 1
  %143 = icmp slt i32 %138, %142
  br i1 %143, label %144, label %166

144:                                              ; preds = %137
  %145 = load i32, i32* %6, align 4
  %146 = sub nsw i32 %145, 1
  %147 = load i32, i32* %8, align 4
  %148 = sub nsw i32 %146, %147
  %149 = sext i32 %148 to i64
  %150 = getelementptr inbounds [100 x [100 x i32]], [100 x [100 x i32]]* %12, i64 0, i64 %149
  %151 = load i32, i32* %9, align 4
  %152 = sext i32 %151 to i64
  %153 = getelementptr inbounds [100 x i32], [100 x i32]* %150, i64 0, i64 %152
  %154 = load i32, i32* %153, align 4
  %155 = call i32 (i8*, ...) @printf(i8* getelementptr inbounds ([4 x i8], [4 x i8]* @.str.2, i64 0, i64 0), i32 %154)
  %156 = load i32, i32* %10, align 4
  %157 = add nsw i32 %156, 1
  store i32 %157, i32* %10, align 4
  %158 = load i32, i32* %10, align 4
  %159 = load i32, i32* %11, align 4
  %160 = icmp eq i32 %158, %159
  br i1 %160, label %161, label %162

161:                                              ; preds = %144
  store i32 0, i32* %3, align 4
  br label %169

162:                                              ; preds = %144
  br label %163

163:                                              ; preds = %162
  %164 = load i32, i32* %8, align 4
  %165 = add nsw i32 %164, 1
  store i32 %165, i32* %8, align 4
  br label %137

166:                                              ; preds = %137
  %167 = load i32, i32* %9, align 4
  %168 = add nsw i32 %167, 1
  store i32 %168, i32* %9, align 4
  br label %42

169:                                              ; preds = %161, %129, %95, %64
  %170 = load i32, i32* %3, align 4
  ret i32 %170
}

declare dso_local i32 @__isoc99_scanf(i8*, ...) #1

declare dso_local i32 @printf(i8*, ...) #1


!llvm.module.flags = !{!0}
!llvm.ident = !{!1}

!0 = !{i32 1, !"wchar_size", i32 4}
!1 = !{!"clang version 10.0.0-4ubuntu1 "}
